target datalayout = "e-m:e-p270:32:32-p271:32:32-p272:64:64-i64:64-i128:128-f80:128-n8:16:32:64-S128"
target triple = "x86_64-pc-linux-gnu"

%struct.png_struct_def = type { [1 x %struct.__jmp_buf_tag], ptr, ptr, i64, ptr, ptr, ptr, ptr, ptr, ptr, ptr, ptr, ptr, i8, i8, i32, i32, i32, i32, %struct.z_stream_s, ptr, i32, i32, i32, i32, i32, i32, i32, i32, i32, i32, i32, i32, i32, i32, i32, i32, i32, i32, i32, i32, i64, i32, i32, i32, ptr, ptr, ptr, ptr, i64, i32, i32, ptr, i16, i32, i16, i8, i8, i8, i8, i8, i8, i8, i8, i8, i8, i8, i8, i8, i8, i8, i16, i8, i32, %struct.png_color_16_struct, %struct.png_color_16_struct, ptr, i32, i32, i32, i32, ptr, ptr, ptr, ptr, ptr, ptr, %struct.png_color_8_struct, %struct.png_color_8_struct, ptr, %struct.png_color_16_struct, ptr, ptr, ptr, ptr, ptr, ptr, ptr, ptr, ptr, i32, i32, i64, i64, i64, i64, i32, i32, ptr, ptr, i32, [29 x i8], i32, ptr, ptr, i32, i32, ptr, i8, i8, i16, i16, ptr, i32, i8, ptr, ptr, ptr, ptr, ptr, ptr, ptr, i8, i32, i32, i32, i64, %struct.png_unknown_chunk_t, i64, ptr, i64, i32, i32, ptr, [4 x ptr], %struct.png_colorspace }
%struct.__jmp_buf_tag = type { [8 x i64], i32, %struct.__sigset_t }
%struct.__sigset_t = type { [16 x i64] }
%struct.z_stream_s = type { ptr, i32, i64, ptr, i32, i64, ptr, ptr, ptr, ptr, ptr, i32, i64, i64 }
%struct.png_color_8_struct = type { i8, i8, i8, i8, i8 }
%struct.png_color_16_struct = type { i8, i16, i16, i16, i16 }
%struct.png_unknown_chunk_t = type { [5 x i8], ptr, i64, i8 }
%struct.png_colorspace = type { i32, %struct.png_xy, %struct.png_XYZ, i16, i16 }
%struct.png_xy = type { i32, i32, i32, i32, i32, i32, i32, i32 }
%struct.png_XYZ = type { i32, i32, i32, i32, i32, i32, i32, i32, i32 }
%struct.png_info_def = type { i32, i32, i32, i64, ptr, i16, i16, i8, i8, i8, i8, i8, i8, i8, i8, [8 x i8], %struct.png_colorspace, ptr, ptr, i32, i32, i32, ptr, %struct.png_time_struct, %struct.png_color_8_struct, ptr, %struct.png_color_16_struct, %struct.png_color_16_struct, i32, i32, i8, i32, i32, i8, i32, ptr, ptr, ptr, ptr, i32, i32, ptr, ptr, i8, i8, i32, ptr, i32, ptr, i32, i8, ptr, ptr, ptr }
%struct.png_time_struct = type { i16, i8, i8, i8, i8, i8 }

@.str.13 = private unnamed_addr constant [37 x i8] c"no rows for png_write_image to write\00", align 1
@.str.14 = private unnamed_addr constant [55 x i8] c"PNG_TRANSFORM_STRIP_FILLER: BEFORE+AFTER not supported\00", align 1

; Function Attrs: nounwind uwtable
define void @png_write_image(ptr noalias noundef %0, ptr noundef %1) #0 {
  %3 = alloca ptr, align 8
  %4 = alloca ptr, align 8
  %5 = alloca i32, align 4
  %6 = alloca i32, align 4
  %7 = alloca i32, align 4
  %8 = alloca ptr, align 8
  store ptr %0, ptr %3, align 8
  store ptr %1, ptr %4, align 8
  %9 = load ptr, ptr %3, align 8
  %10 = icmp eq ptr %9, null
  br i1 %10, label %11, label %12

11:                                               ; preds = %2
  br label %40

12:                                               ; preds = %2
  %13 = load ptr, ptr %3, align 8
  %14 = call i32 @png_set_interlace_handling(ptr noundef %13)
  store i32 %14, ptr %7, align 4
  store i32 0, ptr %6, align 4
  br label %15

15:                                               ; preds = %37, %12
  %16 = load i32, ptr %6, align 4
  %17 = load i32, ptr %7, align 4
  %18 = icmp slt i32 %16, %17
  br i1 %18, label %19, label %40

19:                                               ; preds = %15
  store i32 0, ptr %5, align 4
  %20 = load ptr, ptr %4, align 8
  store ptr %20, ptr %8, align 8
  br label %21

21:                                               ; preds = %31, %19
  %22 = load i32, ptr %5, align 4
  %23 = load ptr, ptr %3, align 8
  %24 = getelementptr inbounds %struct.png_struct_def, ptr %23, i32 0, i32 38
  %25 = load i32, ptr %24, align 4
  %26 = icmp ult i32 %22, %25
  br i1 %26, label %27, label %36

27:                                               ; preds = %21
  %28 = load ptr, ptr %3, align 8
  %29 = load ptr, ptr %8, align 8
  %30 = load ptr, ptr %29, align 8
  call void @png_write_row(ptr noundef %28, ptr noundef %30)
  br label %31

31:                                               ; preds = %27
  %32 = load i32, ptr %5, align 4
  %33 = add i32 %32, 1
  store i32 %33, ptr %5, align 4
  %34 = load ptr, ptr %8, align 8
  %35 = getelementptr inbounds ptr, ptr %34, i32 1
  store ptr %35, ptr %8, align 8
  br label %21, !llvm.loop !11

36:                                               ; preds = %21
  br label %37

37:                                               ; preds = %36
  %38 = load i32, ptr %6, align 4
  %39 = add nsw i32 %38, 1
  store i32 %39, ptr %6, align 4
  br label %15, !llvm.loop !12

40:                                               ; preds = %15, %11
  ret void
}

; Function Attrs: nounwind uwtable
define void @png_write_png(ptr noalias noundef %0, ptr noalias noundef %1, i32 noundef %2, ptr noundef %3) #0 {
  %5 = alloca ptr, align 8
  %6 = alloca ptr, align 8
  %7 = alloca i32, align 4
  %8 = alloca ptr, align 8
  store ptr %0, ptr %5, align 8
  store ptr %1, ptr %6, align 8
  store i32 %2, ptr %7, align 4
  store ptr %3, ptr %8, align 8
  %9 = load ptr, ptr %5, align 8
  %10 = icmp eq ptr %9, null
  br i1 %10, label %14, label %11

11:                                               ; preds = %4
  %12 = load ptr, ptr %6, align 8
  %13 = icmp eq ptr %12, null
  br i1 %13, label %14, label %15

14:                                               ; preds = %11, %4
  br label %113

15:                                               ; preds = %11
  %16 = load ptr, ptr %6, align 8
  %17 = getelementptr inbounds %struct.png_info_def, ptr %16, i32 0, i32 2
  %18 = load i32, ptr %17, align 8
  %19 = and i32 %18, 32768
  %20 = icmp eq i32 %19, 0
  br i1 %20, label %21, label %23

21:                                               ; preds = %15
  %22 = load ptr, ptr %5, align 8
  call void @png_app_error(ptr noundef %22, ptr noundef @.str.13)
  br label %113

23:                                               ; preds = %15
  %24 = load ptr, ptr %5, align 8
  %25 = load ptr, ptr %6, align 8
  call void @png_write_info(ptr noundef %24, ptr noundef %25)
  %26 = load i32, ptr %7, align 4
  %27 = and i32 %26, 32
  %28 = icmp ne i32 %27, 0
  br i1 %28, label %29, label %31

29:                                               ; preds = %23
  %30 = load ptr, ptr %5, align 8
  call void @png_set_invert_mono(ptr noundef %30)
  br label %31

31:                                               ; preds = %29, %23
  %32 = load i32, ptr %7, align 4
  %33 = and i32 %32, 64
  %34 = icmp ne i32 %33, 0
  br i1 %34, label %35, label %46

35:                                               ; preds = %31
  %36 = load ptr, ptr %6, align 8
  %37 = getelementptr inbounds %struct.png_info_def, ptr %36, i32 0, i32 2
  %38 = load i32, ptr %37, align 8
  %39 = and i32 %38, 2
  %40 = icmp ne i32 %39, 0
  br i1 %40, label %41, label %45

41:                                               ; preds = %35
  %42 = load ptr, ptr %5, align 8
  %43 = load ptr, ptr %6, align 8
  %44 = getelementptr inbounds %struct.png_info_def, ptr %43, i32 0, i32 24
  call void @png_set_shift(ptr noundef %42, ptr noundef %44)
  br label %45

45:                                               ; preds = %41, %35
  br label %46

46:                                               ; preds = %45, %31
  %47 = load i32, ptr %7, align 4
  %48 = and i32 %47, 4
  %49 = icmp ne i32 %48, 0
  br i1 %49, label %50, label %52

50:                                               ; preds = %46
  %51 = load ptr, ptr %5, align 8
  call void @png_set_packing(ptr noundef %51)
  br label %52

52:                                               ; preds = %50, %46
  %53 = load i32, ptr %7, align 4
  %54 = and i32 %53, 256
  %55 = icmp ne i32 %54, 0
  br i1 %55, label %56, label %58

56:                                               ; preds = %52
  %57 = load ptr, ptr %5, align 8
  call void @png_set_swap_alpha(ptr noundef %57)
  br label %58

58:                                               ; preds = %56, %52
  %59 = load i32, ptr %7, align 4
  %60 = and i32 %59, 6144
  %61 = icmp ne i32 %60, 0
  br i1 %61, label %62, label %82

62:                                               ; preds = %58
  %63 = load i32, ptr %7, align 4
  %64 = and i32 %63, 4096
  %65 = icmp ne i32 %64, 0
  br i1 %65, label %66, label %74

66:                                               ; preds = %62
  %67 = load i32, ptr %7, align 4
  %68 = and i32 %67, 2048
  %69 = icmp ne i32 %68, 0
  br i1 %69, label %70, label %72

70:                                               ; preds = %66
  %71 = load ptr, ptr %5, align 8
  call void @png_app_error(ptr noundef %71, ptr noundef @.str.14)
  br label %72

72:                                               ; preds = %70, %66
  %73 = load ptr, ptr %5, align 8
  call void @png_set_filler(ptr noundef %73, i32 noundef 0, i32 noundef 1)
  br label %81

74:                                               ; preds = %62
  %75 = load i32, ptr %7, align 4
  %76 = and i32 %75, 2048
  %77 = icmp ne i32 %76, 0
  br i1 %77, label %78, label %80

78:                                               ; preds = %74
  %79 = load ptr, ptr %5, align 8
  call void @png_set_filler(ptr noundef %79, i32 noundef 0, i32 noundef 0)
  br label %80

80:                                               ; preds = %78, %74
  br label %81

81:                                               ; preds = %80, %72
  br label %82

82:                                               ; preds = %81, %58
  %83 = load i32, ptr %7, align 4
  %84 = and i32 %83, 128
  %85 = icmp ne i32 %84, 0
  br i1 %85, label %86, label %88

86:                                               ; preds = %82
  %87 = load ptr, ptr %5, align 8
  call void @png_set_bgr(ptr noundef %87)
  br label %88

88:                                               ; preds = %86, %82
  %89 = load i32, ptr %7, align 4
  %90 = and i32 %89, 512
  %91 = icmp ne i32 %90, 0
  br i1 %91, label %92, label %94

92:                                               ; preds = %88
  %93 = load ptr, ptr %5, align 8
  call void @png_set_swap(ptr noundef %93)
  br label %94

94:                                               ; preds = %92, %88
  %95 = load i32, ptr %7, align 4
  %96 = and i32 %95, 8
  %97 = icmp ne i32 %96, 0
  br i1 %97, label %98, label %100

98:                                               ; preds = %94
  %99 = load ptr, ptr %5, align 8
  call void @png_set_packswap(ptr noundef %99)
  br label %100

100:                                              ; preds = %98, %94
  %101 = load i32, ptr %7, align 4
  %102 = and i32 %101, 1024
  %103 = icmp ne i32 %102, 0
  br i1 %103, label %104, label %106

104:                                              ; preds = %100
  %105 = load ptr, ptr %5, align 8
  call void @png_set_invert_alpha(ptr noundef %105)
  br label %106

106:                                              ; preds = %104, %100
  %107 = load ptr, ptr %5, align 8
  %108 = load ptr, ptr %6, align 8
  %109 = getelementptr inbounds %struct.png_info_def, ptr %108, i32 0, i32 53
  %110 = load ptr, ptr %109, align 8
  call void @png_write_image(ptr noundef %107, ptr noundef %110)
  %111 = load ptr, ptr %5, align 8
  %112 = load ptr, ptr %6, align 8
  call void @png_write_end(ptr noundef %111, ptr noundef %112)
  br label %113

113:                                              ; preds = %106, %21, %14
  ret void
}