; Function Attrs: nounwind uwtable
define void @png_write_png(ptr noalias noundef %0, ptr noalias noundef %1, i32 noundef %2, ptr nocapture noundef readnone %3) local_unnamed_addr #0 {
  %5 = icmp eq ptr %0, null
  %6 = icmp eq ptr %1, null
  %or.cond = or i1 %5, %6
  br i1 %or.cond, label %64, label %7

7:                                                ; preds = %4
  %8 = getelementptr inbounds i8, ptr %1, i64 8
  %9 = load i32, ptr %8, align 8
  %10 = and i32 %9, 32768
  %11 = icmp eq i32 %10, 0
  br i1 %11, label %12, label %13

12:                                               ; preds = %7
  tail call void @png_app_error(ptr noundef nonnull %0, ptr noundef nonnull @.str.13) #15
  br label %64

13:                                               ; preds = %7
  tail call void @png_write_info(ptr noundef nonnull %0, ptr noundef nonnull %1)
  %14 = and i32 %2, 32
  %.not = icmp eq i32 %14, 0
  br i1 %.not, label %16, label %15

15:                                               ; preds = %13
  tail call void @png_set_invert_mono(ptr noundef nonnull %0) #15
  br label %16

16:                                               ; preds = %15, %13
  %17 = and i32 %2, 64
  %.not36 = icmp eq i32 %17, 0
  br i1 %.not36, label %23, label %18

18:                                               ; preds = %16
  %19 = load i32, ptr %8, align 8
  %20 = and i32 %19, 2
  %.not37 = icmp eq i32 %20, 0
  br i1 %.not37, label %23, label %21

21:                                               ; preds = %18
  %22 = getelementptr inbounds i8, ptr %1, i64 176
  tail call void @png_set_shift(ptr noundef nonnull %0, ptr noundef nonnull %22) #15
  br label %23

23:                                               ; preds = %18, %21, %16
  %24 = and i32 %2, 4
  %.not38 = icmp eq i32 %24, 0
  br i1 %.not38, label %26, label %25

25:                                               ; preds = %23
  tail call void @png_set_packing(ptr noundef nonnull %0) #15
  br label %26

26:                                               ; preds = %25, %23
  %27 = and i32 %2, 256
  %.not39 = icmp eq i32 %27, 0
  br i1 %.not39, label %29, label %28

28:                                               ; preds = %26
  tail call void @png_set_swap_alpha(ptr noundef nonnull %0) #15
  br label %29

29:                                               ; preds = %28, %26
  %30 = and i32 %2, 6144
  %.not40 = icmp eq i32 %30, 0
  br i1 %.not40, label %37, label %31

31:                                               ; preds = %29
  %32 = and i32 %2, 4096
  %.not41 = icmp eq i32 %32, 0
  %33 = and i32 %2, 2048
  %.not42 = icmp eq i32 %33, 0
  br i1 %.not41, label %36, label %34

34:                                               ; preds = %31
  br i1 %.not42, label %.sink.split, label %35

35:                                               ; preds = %34
  tail call void @png_app_error(ptr noundef nonnull %0, ptr noundef nonnull @.str.14) #15
  br label %.sink.split

36:                                               ; preds = %31
  br i1 %.not42, label %37, label %.sink.split

.sink.split:                                      ; preds = %36, %34, %35
  %.sink = phi i32 [ 1, %35 ], [ 1, %34 ], [ 0, %36 ]
  tail call void @png_set_filler(ptr noundef nonnull %0, i32 noundef 0, i32 noundef %.sink) #15
  br label %37

37:                                               ; preds = %.sink.split, %36, %29
  %38 = and i32 %2, 128
  %.not44 = icmp eq i32 %38, 0
  br i1 %.not44, label %40, label %39

39:                                               ; preds = %37
  tail call void @png_set_bgr(ptr noundef nonnull %0) #15
  br label %40

40:                                               ; preds = %39, %37
  %41 = and i32 %2, 512
  %.not45 = icmp eq i32 %41, 0
  br i1 %.not45, label %43, label %42

42:                                               ; preds = %40
  tail call void @png_set_swap(ptr noundef nonnull %0) #15
  br label %43

43:                                               ; preds = %42, %40
  %44 = and i32 %2, 8
  %.not46 = icmp eq i32 %44, 0
  br i1 %.not46, label %46, label %45

45:                                               ; preds = %43
  tail call void @png_set_packswap(ptr noundef nonnull %0) #15
  br label %46

46:                                               ; preds = %45, %43
  %47 = and i32 %2, 1024
  %.not47 = icmp eq i32 %47, 0
  br i1 %.not47, label %49, label %48

48:                                               ; preds = %46
  tail call void @png_set_invert_alpha(ptr noundef nonnull %0) #15
  br label %49

49:                                               ; preds = %46, %48
  %50 = getelementptr inbounds i8, ptr %1, i64 352
  %51 = load ptr, ptr %50, align 8
  tail call void @llvm.experimental.noalias.scope.decl(metadata !34)
  %52 = tail call i32 @png_set_interlace_handling(ptr noundef nonnull %0) #15
  %53 = icmp sgt i32 %52, 0
  br i1 %53, label %.preheader.lr.ph.i, label %png_write_image.exit

.preheader.lr.ph.i:                               ; preds = %49
  %54 = getelementptr inbounds i8, ptr %0, i64 508
  %55 = load i32, ptr %54, align 4, !alias.scope !34
  %.not.i = icmp eq i32 %55, 0
  br i1 %.not.i, label %png_write_image.exit, label %.preheader.i

.preheader.i:                                     ; preds = %.preheader.lr.ph.i, %._crit_edge.i
  %56 = phi i32 [ %62, %._crit_edge.i ], [ 1, %.preheader.lr.ph.i ]
  %.01216.i = phi i32 [ %63, %._crit_edge.i ], [ 0, %.preheader.lr.ph.i ]
  %.not17.i = icmp eq i32 %56, 0
  br i1 %.not17.i, label %._crit_edge.i, label %.lr.ph.i

.lr.ph.i:                                         ; preds = %.preheader.i, %.lr.ph.i
  %.015.i = phi ptr [ %59, %.lr.ph.i ], [ %51, %.preheader.i ]
  %.01114.i = phi i32 [ %58, %.lr.ph.i ], [ 0, %.preheader.i ]
  %57 = load ptr, ptr %.015.i, align 8, !noalias !34
  tail call void @png_write_row(ptr noundef nonnull %0, ptr noundef %57)
  %58 = add nuw i32 %.01114.i, 1
  %59 = getelementptr inbounds i8, ptr %.015.i, i64 8
  %60 = load i32, ptr %54, align 4, !alias.scope !34
  %61 = icmp ult i32 %58, %60
  br i1 %61, label %.lr.ph.i, label %._crit_edge.i, !llvm.loop !28

._crit_edge.i:                                    ; preds = %.lr.ph.i, %.preheader.i
  %62 = phi i32 [ 0, %.preheader.i ], [ %60, %.lr.ph.i ]
  %63 = add nuw nsw i32 %.01216.i, 1
  %exitcond.not.i = icmp eq i32 %63, %52
  br i1 %exitcond.not.i, label %png_write_image.exit, label %.preheader.i, !llvm.loop !29

png_write_image.exit:                             ; preds = %._crit_edge.i, %49, %.preheader.lr.ph.i
  tail call void @png_write_end(ptr noundef %0, ptr noundef %1)
  br label %64

64:                                               ; preds = %4, %png_write_image.exit, %12
  ret void
}